; Function Attrs: cold nounwind optsize uwtable
define internal range(i32 -2147483647, -2147483648) i32 @write_header(ptr noundef %0) #0 {
  %2 = alloca %struct.v4l2_format, align 8
  %3 = alloca [64 x i8], align 1
  %4 = alloca [64 x i8], align 1
  call void @llvm.lifetime.start.p0(i64 208, ptr nonnull %2) #9
  call void @llvm.memset.p0.i64(ptr noundef nonnull align 8 dereferenceable(208) %2, i8 0, i64 208, i1 false)
  store i32 2, ptr %2, align 8
  %5 = getelementptr inbounds nuw i8, ptr %0, i64 24
  %6 = load ptr, ptr %5, align 8, !tbaa !4
  %7 = getelementptr inbounds nuw i8, ptr %0, i64 128
  %8 = load i32, ptr %7, align 8, !tbaa !24
  %9 = and i32 %8, 4
  %.not = icmp eq i32 %9, 0
  %spec.select = select i1 %.not, i32 2, i32 2050
  %10 = getelementptr inbounds nuw i8, ptr %0, i64 88
  %11 = load ptr, ptr %10, align 8, !tbaa !25
  %12 = tail call i32 (ptr, i32, ...) @open64(ptr noundef %11, i32 noundef %spec.select) #9
  %13 = getelementptr inbounds nuw i8, ptr %6, i64 8
  store i32 %12, ptr %13, align 8, !tbaa !26
  %14 = icmp slt i32 %12, 0
  br i1 %14, label %15, label %20

15:                                               ; preds = %1
  %16 = tail call ptr @__errno_location() #10
  %17 = load i32, ptr %16, align 4, !tbaa !28
  %18 = sub nsw i32 0, %17
  %19 = load ptr, ptr %10, align 8, !tbaa !25
  tail call void (ptr, i32, ptr, ...) @av_log(ptr noundef nonnull %0, i32 noundef 16, ptr noundef nonnull @.str.4, ptr noundef %19) #9
  br label %75

20:                                               ; preds = %1
  %21 = getelementptr inbounds nuw i8, ptr %0, i64 44
  %22 = load i32, ptr %21, align 4, !tbaa !29
  %.not38 = icmp eq i32 %22, 1
  br i1 %.not38, label %23, label %30

23:                                               ; preds = %20
  %24 = getelementptr inbounds nuw i8, ptr %0, i64 48
  %25 = load ptr, ptr %24, align 8, !tbaa !30
  %26 = load ptr, ptr %25, align 8, !tbaa !31
  %27 = getelementptr inbounds nuw i8, ptr %26, i64 16
  %28 = load ptr, ptr %27, align 8, !tbaa !33
  %29 = load i32, ptr %28, align 8, !tbaa !40
  %.not39 = icmp eq i32 %29, 0
  br i1 %.not39, label %31, label %30

30:                                               ; preds = %23, %20
  tail call void (ptr, i32, ptr, ...) @av_log(ptr noundef nonnull %0, i32 noundef 16, ptr noundef nonnull @.str.5) #9
  br label %75

31:                                               ; preds = %23
  %32 = getelementptr inbounds nuw i8, ptr %28, i64 4
  %33 = load i32, ptr %32, align 4, !tbaa !43
  %34 = icmp eq i32 %33, 13
  br i1 %34, label %35, label %39

35:                                               ; preds = %31
  %36 = getelementptr inbounds nuw i8, ptr %28, i64 44
  %37 = load i32, ptr %36, align 4, !tbaa !44
  %38 = tail call i32 @ff_fmt_ff2v4l(i32 noundef %37, i32 noundef 13) #9
  br label %41

39:                                               ; preds = %31
  %40 = tail call i32 @ff_fmt_ff2v4l(i32 noundef -1, i32 noundef %33) #9
  br label %41

41:                                               ; preds = %39, %35
  %.0 = phi i32 [ %38, %35 ], [ %40, %39 ]
  %.not40 = icmp eq i32 %.0, 0
  br i1 %.not40, label %42, label %46

42:                                               ; preds = %41
  %43 = getelementptr inbounds nuw i8, ptr %28, i64 44
  %44 = load i32, ptr %43, align 4, !tbaa !44
  %45 = tail call ptr @av_get_pix_fmt_name(i32 noundef %44) #9
  tail call void (ptr, i32, ptr, ...) @av_log(ptr noundef nonnull %0, i32 noundef 16, ptr noundef nonnull @.str.6, ptr noundef %45) #9
  br label %75

46:                                               ; preds = %41
  %47 = load i32, ptr %13, align 8, !tbaa !26
  %48 = call i32 (i32, i64, ...) @ioctl(i32 noundef %47, i64 noundef 3234878980, ptr noundef nonnull %2) #9
  %49 = icmp slt i32 %48, 0
  br i1 %49, label %50, label %55

50:                                               ; preds = %46
  %51 = tail call ptr @__errno_location() #10
  %52 = load i32, ptr %51, align 4, !tbaa !28
  %53 = sub nsw i32 0, %52
  call void @llvm.memset.p0.i64(ptr noundef nonnull align 1 dereferenceable(64) %3, i8 0, i64 64, i1 false)
  %54 = call i32 @av_strerror(i32 noundef range(i32 -2147483647, -2147483648) %53, ptr noundef nonnull %3, i64 noundef 64) #9
  call void (ptr, i32, ptr, ...) @av_log(ptr noundef nonnull %0, i32 noundef 16, ptr noundef nonnull @.str.7, ptr noundef nonnull %3) #9
  br label %75

55:                                               ; preds = %46
  %56 = getelementptr inbounds nuw i8, ptr %28, i64 72
  %57 = load i32, ptr %56, align 8, !tbaa !45
  %58 = getelementptr inbounds nuw i8, ptr %2, i64 8
  store i32 %57, ptr %58, align 8, !tbaa !46
  %59 = getelementptr inbounds nuw i8, ptr %28, i64 76
  %60 = load i32, ptr %59, align 4, !tbaa !47
  %61 = getelementptr inbounds nuw i8, ptr %2, i64 12
  store i32 %60, ptr %61, align 4, !tbaa !46
  %62 = getelementptr inbounds nuw i8, ptr %2, i64 16
  store i32 %.0, ptr %62, align 8, !tbaa !46
  %63 = getelementptr inbounds nuw i8, ptr %28, i64 44
  %64 = load i32, ptr %63, align 4, !tbaa !44
  %65 = call i32 @av_image_get_buffer_size(i32 noundef %64, i32 noundef %57, i32 noundef %60, i32 noundef 1) #9
  %66 = getelementptr inbounds nuw i8, ptr %2, i64 28
  store i32 %65, ptr %66, align 4, !tbaa !46
  %67 = load i32, ptr %13, align 8, !tbaa !26
  %68 = call i32 (i32, i64, ...) @ioctl(i32 noundef %67, i64 noundef 3234878981, ptr noundef nonnull %2) #9
  %69 = icmp slt i32 %68, 0
  br i1 %69, label %70, label %75

70:                                               ; preds = %55
  %71 = tail call ptr @__errno_location() #10
  %72 = load i32, ptr %71, align 4, !tbaa !28
  %73 = sub nsw i32 0, %72
  call void @llvm.memset.p0.i64(ptr noundef nonnull align 1 dereferenceable(64) %4, i8 0, i64 64, i1 false)
  %74 = call i32 @av_strerror(i32 noundef range(i32 -2147483647, -2147483648) %73, ptr noundef nonnull %4, i64 noundef 64) #9
  call void (ptr, i32, ptr, ...) @av_log(ptr noundef nonnull %0, i32 noundef 16, ptr noundef nonnull @.str.8, ptr noundef nonnull %4) #9
  br label %75

75:                                               ; preds = %55, %70, %50, %42, %30, %15
  %.035 = phi i32 [ %18, %15 ], [ -22, %30 ], [ %53, %50 ], [ %73, %70 ], [ -22, %42 ], [ 0, %55 ]
  call void @llvm.lifetime.end.p0(i64 208, ptr nonnull %2) #9
  ret i32 %.035
}